	.file	"functions.c"
	.text
	.section	.rodata
.LC2:
	.string	"%lf\n"
	.text
	.globl	main
	.type	main, @function
main:
.LFB6:
	.cfi_startproc
	endbr64
	pushq	%rbp
	.cfi_def_cfa_offset 16
	.cfi_offset 6, -16
	movq	%rsp, %rbp
	.cfi_def_cfa_register 6
	subq	$16, %rsp
	movsd	.LC0(%rip), %xmm0
	movsd	%xmm0, -16(%rbp)
	movsd	-16(%rbp), %xmm0
	movq	.LC1(%rip), %rax
	movapd	%xmm0, %xmm1
	movq	%rax, %xmm0
	call	max
	movq	%xmm0, %rax
	movq	%rax, -8(%rbp)
	movq	-8(%rbp), %rax
	movq	%rax, %xmm0
	leaq	.LC2(%rip), %rdi
	movl	$1, %eax
	call	printf@PLT
	movl	$0, %eax
	leave
	.cfi_def_cfa 7, 8
	ret
	.cfi_endproc
.LFE6:
	.size	main, .-main
	.globl	sum
	.type	sum, @function
sum:
.LFB7:
	.cfi_startproc
	endbr64
	pushq	%rbp
	.cfi_def_cfa_offset 16
	.cfi_offset 6, -16
	movq	%rsp, %rbp
	.cfi_def_cfa_register 6
	movl	%edi, -4(%rbp)
	movl	%esi, -8(%rbp)
	movl	-4(%rbp), %edx
	movl	-8(%rbp), %eax
	addl	%edx, %eax
	popq	%rbp
	.cfi_def_cfa 7, 8
	ret
	.cfi_endproc
.LFE7:
	.size	sum, .-sum
	.section	.rodata
.LC3:
	.string	"Hello"
.LC4:
	.string	"Bye bye"
	.text
	.globl	printHello
	.type	printHello, @function
printHello:
.LFB8:
	.cfi_startproc
	endbr64
	pushq	%rbp
	.cfi_def_cfa_offset 16
	.cfi_offset 6, -16
	movq	%rsp, %rbp
	.cfi_def_cfa_register 6
	leaq	.LC3(%rip), %rdi
	call	puts@PLT
	leaq	.LC4(%rip), %rdi
	call	puts@PLT
	nop
	popq	%rbp
	.cfi_def_cfa 7, 8
	ret
	.cfi_endproc
.LFE8:
	.size	printHello, .-printHello
	.globl	getNum
	.type	getNum, @function
getNum:
.LFB9:
	.cfi_startproc
	endbr64
	pushq	%rbp
	.cfi_def_cfa_offset 16
	.cfi_offset 6, -16
	movq	%rsp, %rbp
	.cfi_def_cfa_register 6
	movl	$50, %eax
	popq	%rbp
	.cfi_def_cfa 7, 8
	ret
	.cfi_endproc
.LFE9:
	.size	getNum, .-getNum
	.globl	max
	.type	max, @function
max:
.LFB10:
	.cfi_startproc
	endbr64
	pushq	%rbp
	.cfi_def_cfa_offset 16
	.cfi_offset 6, -16
	movq	%rsp, %rbp
	.cfi_def_cfa_register 6
	movsd	%xmm0, -8(%rbp)
	movsd	%xmm1, -16(%rbp)
	movsd	-8(%rbp), %xmm0
	comisd	-16(%rbp), %xmm0
	jbe	.L13
	movsd	-8(%rbp), %xmm0
	jmp	.L11
.L13:
	movsd	-16(%rbp), %xmm0
.L11:
	popq	%rbp
	.cfi_def_cfa 7, 8
	ret
	.cfi_endproc
.LFE10:
	.size	max, .-max
	.section	.rodata
	.align 8
.LC0:
	.long	0
	.long	1077149696
	.align 8
.LC1:
	.long	2748779069
	.long	1078369648
	.ident	"GCC: (Ubuntu 9.4.0-1ubuntu1~20.04) 9.4.0"
	.section	.note.GNU-stack,"",@progbits
	.section	.note.gnu.property,"a"
	.align 8
	.long	 1f - 0f
	.long	 4f - 1f
	.long	 5
0:
	.string	 "GNU"
1:
	.align 8
	.long	 0xc0000002
	.long	 3f - 2f
2:
	.long	 0x3
3:
	.align 8
4:
